target datalayout = "e-m:e-p270:32:32-p271:32:32-p272:64:64-i64:64-i128:128-f80:128-n8:16:32:64-S128"
target triple = "x86_64-pc-linux-gnu"

%struct.CVodeMemRec = type { double, ptr, ptr, i32, i32, i32, double, double, ptr, i32, ptr, ptr, i32, ptr, i32, i32, double, double, ptr, i32, i32, i32, ptr, ptr, ptr, i32, i32, ptr, ptr, ptr, i32, double, i32, i32, double, ptr, ptr, i32, ptr, ptr, i32, i32, i32, double, ptr, ptr, [13 x ptr], ptr, ptr, ptr, ptr, ptr, [13 x ptr], ptr, ptr, ptr, ptr, [13 x ptr], ptr, ptr, ptr, ptr, ptr, i32, [13 x ptr], ptr, ptr, ptr, ptr, ptr, i32, double, i32, i32, i32, i32, i32, double, double, double, double, double, double, double, double, [14 x double], [6 x double], [13 x double], double, double, double, double, double, double, double, double, double, double, double, i32, ptr, i32, i64, i32, i32, i32, i32, i32, double, double, double, i64, i64, i64, i64, i64, i64, i64, i64, i64, ptr, i64, i64, ptr, i64, i64, i64, i64, i64, i64, i32, i64, i64, i64, i64, i64, i64, double, double, double, ptr, ptr, ptr, ptr, ptr, i32, i32, i64, double, double, double, i32, double, i32, i32, i32, i32, i32, i32, i32, i32, i32, i32, i32, i32, i32, i32, i32, i32, ptr, ptr, ptr, i32, [6 x [4 x double]], i32, i64, ptr, i32, ptr, ptr, double, double, double, ptr, ptr, ptr, double, double, i32, i32, i64, ptr, i32, i32, ptr, i32 }

; Function Attrs: nounwind uwtable
define internal void @cvQuadFreeVectors(ptr noundef %0) #0 {
  %2 = alloca ptr, align 8
  %3 = alloca i32, align 4
  %4 = alloca i32, align 4
  store ptr %0, ptr %2, align 8, !tbaa !7
  call void @llvm.lifetime.start.p0(i64 4, ptr %3) #8
  call void @llvm.lifetime.start.p0(i64 4, ptr %4) #8
  %5 = load ptr, ptr %2, align 8, !tbaa !7
  %6 = getelementptr inbounds nuw %struct.CVodeMemRec, ptr %5, i32 0, i32 154
  %7 = load i32, ptr %6, align 4, !tbaa !84
  store i32 %7, ptr %4, align 4, !tbaa !3
  %8 = load ptr, ptr %2, align 8, !tbaa !7
  %9 = getelementptr inbounds nuw %struct.CVodeMemRec, ptr %8, i32 0, i32 53
  %10 = load ptr, ptr %9, align 8, !tbaa !175
  call void @N_VDestroy(ptr noundef %10)
  %11 = load ptr, ptr %2, align 8, !tbaa !7
  %12 = getelementptr inbounds nuw %struct.CVodeMemRec, ptr %11, i32 0, i32 55
  %13 = load ptr, ptr %12, align 8, !tbaa !176
  call void @N_VDestroy(ptr noundef %13)
  %14 = load ptr, ptr %2, align 8, !tbaa !7
  %15 = getelementptr inbounds nuw %struct.CVodeMemRec, ptr %14, i32 0, i32 54
  %16 = load ptr, ptr %15, align 8, !tbaa !177
  call void @N_VDestroy(ptr noundef %16)
  %17 = load ptr, ptr %2, align 8, !tbaa !7
  %18 = getelementptr inbounds nuw %struct.CVodeMemRec, ptr %17, i32 0, i32 56
  %19 = load ptr, ptr %18, align 8, !tbaa !178
  call void @N_VDestroy(ptr noundef %19)
  store i32 0, ptr %3, align 4, !tbaa !3
  br label %20

20:                                               ; preds = %31, %1
  %21 = load i32, ptr %3, align 4, !tbaa !3
  %22 = load i32, ptr %4, align 4, !tbaa !3
  %23 = icmp sle i32 %21, %22
  br i1 %23, label %24, label %34

24:                                               ; preds = %20
  %25 = load ptr, ptr %2, align 8, !tbaa !7
  %26 = getelementptr inbounds nuw %struct.CVodeMemRec, ptr %25, i32 0, i32 52
  %27 = load i32, ptr %3, align 4, !tbaa !3
  %28 = sext i32 %27 to i64
  %29 = getelementptr inbounds [13 x ptr], ptr %26, i64 0, i64 %28
  %30 = load ptr, ptr %29, align 8, !tbaa !103
  call void @N_VDestroy(ptr noundef %30)
  br label %31

31:                                               ; preds = %24
  %32 = load i32, ptr %3, align 4, !tbaa !3
  %33 = add nsw i32 %32, 1
  store i32 %33, ptr %3, align 4, !tbaa !3
  br label %20, !llvm.loop !288

34:                                               ; preds = %20
  %35 = load i32, ptr %4, align 4, !tbaa !3
  %36 = add nsw i32 %35, 5
  %37 = sext i32 %36 to i64
  %38 = load ptr, ptr %2, align 8, !tbaa !7
  %39 = getelementptr inbounds nuw %struct.CVodeMemRec, ptr %38, i32 0, i32 133
  %40 = load i64, ptr %39, align 8, !tbaa !171
  %41 = mul nsw i64 %37, %40
  %42 = load ptr, ptr %2, align 8, !tbaa !7
  %43 = getelementptr inbounds nuw %struct.CVodeMemRec, ptr %42, i32 0, i32 135
  %44 = load i64, ptr %43, align 8, !tbaa !86
  %45 = sub nsw i64 %44, %41
  store i64 %45, ptr %43, align 8, !tbaa !86
  %46 = load i32, ptr %4, align 4, !tbaa !3
  %47 = add nsw i32 %46, 5
  %48 = sext i32 %47 to i64
  %49 = load ptr, ptr %2, align 8, !tbaa !7
  %50 = getelementptr inbounds nuw %struct.CVodeMemRec, ptr %49, i32 0, i32 134
  %51 = load i64, ptr %50, align 8, !tbaa !172
  %52 = mul nsw i64 %48, %51
  %53 = load ptr, ptr %2, align 8, !tbaa !7
  %54 = getelementptr inbounds nuw %struct.CVodeMemRec, ptr %53, i32 0, i32 136
  %55 = load i64, ptr %54, align 8, !tbaa !87
  %56 = sub nsw i64 %55, %52
  store i64 %56, ptr %54, align 8, !tbaa !87
  %57 = load ptr, ptr %2, align 8, !tbaa !7
  %58 = getelementptr inbounds nuw %struct.CVodeMemRec, ptr %57, i32 0, i32 161
  %59 = load i32, ptr %58, align 8, !tbaa !90
  %60 = icmp ne i32 %59, 0
  br i1 %60, label %61, label %79

61:                                               ; preds = %34
  %62 = load ptr, ptr %2, align 8, !tbaa !7
  %63 = getelementptr inbounds nuw %struct.CVodeMemRec, ptr %62, i32 0, i32 18
  %64 = load ptr, ptr %63, align 8, !tbaa !183
  call void @N_VDestroy(ptr noundef %64)
  %65 = load ptr, ptr %2, align 8, !tbaa !7
  %66 = getelementptr inbounds nuw %struct.CVodeMemRec, ptr %65, i32 0, i32 133
  %67 = load i64, ptr %66, align 8, !tbaa !171
  %68 = load ptr, ptr %2, align 8, !tbaa !7
  %69 = getelementptr inbounds nuw %struct.CVodeMemRec, ptr %68, i32 0, i32 135
  %70 = load i64, ptr %69, align 8, !tbaa !86
  %71 = sub nsw i64 %70, %67
  store i64 %71, ptr %69, align 8, !tbaa !86
  %72 = load ptr, ptr %2, align 8, !tbaa !7
  %73 = getelementptr inbounds nuw %struct.CVodeMemRec, ptr %72, i32 0, i32 134
  %74 = load i64, ptr %73, align 8, !tbaa !172
  %75 = load ptr, ptr %2, align 8, !tbaa !7
  %76 = getelementptr inbounds nuw %struct.CVodeMemRec, ptr %75, i32 0, i32 136
  %77 = load i64, ptr %76, align 8, !tbaa !87
  %78 = sub nsw i64 %77, %74
  store i64 %78, ptr %76, align 8, !tbaa !87
  br label %79

79:                                               ; preds = %61, %34
  %80 = load ptr, ptr %2, align 8, !tbaa !7
  %81 = getelementptr inbounds nuw %struct.CVodeMemRec, ptr %80, i32 0, i32 161
  store i32 0, ptr %81, align 8, !tbaa !90
  call void @llvm.lifetime.end.p0(i64 4, ptr %4) #8
  call void @llvm.lifetime.end.p0(i64 4, ptr %3) #8
  ret void
}

; Function Attrs: nounwind uwtable
define void @CVodeQuadFree(ptr noundef %0) #0 {
  %2 = alloca ptr, align 8
  %3 = alloca ptr, align 8
  %4 = alloca i32, align 4
  store ptr %0, ptr %2, align 8, !tbaa !101
  call void @llvm.lifetime.start.p0(i64 8, ptr %3) #8
  %5 = load ptr, ptr %2, align 8, !tbaa !101
  %6 = icmp eq ptr %5, null
  br i1 %6, label %7, label %8

7:                                                ; preds = %1
  store i32 1, ptr %4, align 4
  br label %21

8:                                                ; preds = %1
  %9 = load ptr, ptr %2, align 8, !tbaa !101
  store ptr %9, ptr %3, align 8, !tbaa !7
  %10 = load ptr, ptr %3, align 8, !tbaa !7
  %11 = getelementptr inbounds nuw %struct.CVodeMemRec, ptr %10, i32 0, i32 162
  %12 = load i32, ptr %11, align 4, !tbaa !91
  %13 = icmp ne i32 %12, 0
  br i1 %13, label %14, label %20

14:                                               ; preds = %8
  %15 = load ptr, ptr %3, align 8, !tbaa !7
  call void @cvQuadFreeVectors(ptr noundef %15)
  %16 = load ptr, ptr %3, align 8, !tbaa !7
  %17 = getelementptr inbounds nuw %struct.CVodeMemRec, ptr %16, i32 0, i32 162
  store i32 0, ptr %17, align 4, !tbaa !91
  %18 = load ptr, ptr %3, align 8, !tbaa !7
  %19 = getelementptr inbounds nuw %struct.CVodeMemRec, ptr %18, i32 0, i32 12
  store i32 0, ptr %19, align 8, !tbaa !54
  br label %20

20:                                               ; preds = %14, %8
  store i32 0, ptr %4, align 4
  br label %21

21:                                               ; preds = %20, %7
  call void @llvm.lifetime.end.p0(i64 8, ptr %3) #8
  %22 = load i32, ptr %4, align 4
  switch i32 %22, label %24 [
    i32 0, label %23
    i32 1, label %23
  ]

23:                                               ; preds = %21, %21
  ret void

24:                                               ; preds = %21
  unreachable
}