; Function Attrs: nounwind uwtable
define void @CVodeQuadFree(ptr noundef captures(address_is_null) %0) local_unnamed_addr #0 {
  %2 = icmp eq ptr %0, null
  br i1 %2, label %48, label %3

3:                                                ; preds = %1
  %4 = getelementptr inbounds nuw i8, ptr %0, i64 1796
  %5 = load i32, ptr %4, align 4, !tbaa !126
  %.not = icmp eq i32 %5, 0
  br i1 %.not, label %48, label %6

6:                                                ; preds = %3
  %7 = getelementptr inbounds nuw i8, ptr %0, i64 1764
  %8 = load i32, ptr %7, align 4, !tbaa !40
  %9 = getelementptr inbounds nuw i8, ptr %0, i64 568
  %10 = load ptr, ptr %9, align 8, !tbaa !116
  tail call void @N_VDestroy(ptr noundef %10) #13
  %11 = getelementptr inbounds nuw i8, ptr %0, i64 584
  %12 = load ptr, ptr %11, align 8, !tbaa !117
  tail call void @N_VDestroy(ptr noundef %12) #13
  %13 = getelementptr inbounds nuw i8, ptr %0, i64 576
  %14 = load ptr, ptr %13, align 8, !tbaa !118
  tail call void @N_VDestroy(ptr noundef %14) #13
  %15 = getelementptr inbounds nuw i8, ptr %0, i64 592
  %16 = load ptr, ptr %15, align 8, !tbaa !119
  tail call void @N_VDestroy(ptr noundef %16) #13
  %.not24.i = icmp slt i32 %8, 0
  br i1 %.not24.i, label %._crit_edge.i, label %.lr.ph.i

.lr.ph.i:                                         ; preds = %6
  %17 = getelementptr inbounds nuw i8, ptr %0, i64 464
  %18 = add nuw i32 %8, 1
  %wide.trip.count.i = zext i32 %18 to i64
  br label %19

19:                                               ; preds = %19, %.lr.ph.i
  %indvars.iv.i = phi i64 [ 0, %.lr.ph.i ], [ %indvars.iv.next.i, %19 ]
  %20 = getelementptr inbounds nuw [13 x ptr], ptr %17, i64 0, i64 %indvars.iv.i
  %21 = load ptr, ptr %20, align 8, !tbaa !46
  tail call void @N_VDestroy(ptr noundef %21) #13
  %indvars.iv.next.i = add nuw nsw i64 %indvars.iv.i, 1
  %exitcond.not.i = icmp eq i64 %indvars.iv.next.i, %wide.trip.count.i
  br i1 %exitcond.not.i, label %._crit_edge.i, label %19, !llvm.loop !379

._crit_edge.i:                                    ; preds = %19, %6
  %22 = add nsw i32 %8, 5
  %23 = sext i32 %22 to i64
  %24 = getelementptr inbounds nuw i8, ptr %0, i64 1608
  %25 = load i64, ptr %24, align 8, !tbaa !114
  %26 = mul nsw i64 %25, %23
  %27 = getelementptr inbounds nuw i8, ptr %0, i64 1624
  %28 = load i64, ptr %27, align 8, !tbaa !42
  %29 = sub nsw i64 %28, %26
  store i64 %29, ptr %27, align 8, !tbaa !42
  %30 = getelementptr inbounds nuw i8, ptr %0, i64 1616
  %31 = load i64, ptr %30, align 8, !tbaa !115
  %32 = mul nsw i64 %31, %23
  %33 = getelementptr inbounds nuw i8, ptr %0, i64 1632
  %34 = load i64, ptr %33, align 8, !tbaa !43
  %35 = sub nsw i64 %34, %32
  store i64 %35, ptr %33, align 8, !tbaa !43
  %36 = getelementptr inbounds nuw i8, ptr %0, i64 1792
  %37 = load i32, ptr %36, align 8, !tbaa !130
  %.not23.i = icmp eq i32 %37, 0
  br i1 %.not23.i, label %cvQuadFreeVectors.exit, label %38

38:                                               ; preds = %._crit_edge.i
  %39 = getelementptr inbounds nuw i8, ptr %0, i64 128
  %40 = load ptr, ptr %39, align 8, !tbaa !131
  tail call void @N_VDestroy(ptr noundef %40) #13
  %41 = load i64, ptr %24, align 8, !tbaa !114
  %42 = load i64, ptr %27, align 8, !tbaa !42
  %43 = sub nsw i64 %42, %41
  store i64 %43, ptr %27, align 8, !tbaa !42
  %44 = load i64, ptr %30, align 8, !tbaa !115
  %45 = load i64, ptr %33, align 8, !tbaa !43
  %46 = sub nsw i64 %45, %44
  store i64 %46, ptr %33, align 8, !tbaa !43
  br label %cvQuadFreeVectors.exit

cvQuadFreeVectors.exit:                           ; preds = %._crit_edge.i, %38
  store i32 0, ptr %36, align 8, !tbaa !130
  store i32 0, ptr %4, align 4, !tbaa !126
  %47 = getelementptr inbounds nuw i8, ptr %0, i64 88
  store i32 0, ptr %47, align 8, !tbaa !125
  br label %48

48:                                               ; preds = %3, %cvQuadFreeVectors.exit, %1
  ret void
}